TN:
SF:/home/sas/Ackermann-steering-controller-ENPM808X/app/PIDController.cpp
FN:27,_ZN13PIDControllerC2Eddddddd
FN:43,_ZN13PIDController10computePIDEv
FN:89,_ZN13PIDController31getVelocityProportionalConstantEv
FN:98,_ZN13PIDController27getVelocityIntegralConstantEv
FN:107,_ZN13PIDController29getVelocityDerivativeConstantEv
FN:116,_ZN13PIDController12getDeltaTimeEv
FN:125,_ZN13PIDController30getHeadingProportionalConstantEv
FN:134,_ZN13PIDController26getHeadingIntegralConstantEv
FN:143,_ZN13PIDController28getHeadingDerivativeConstantEv
FN:152,_ZNK13PIDController17getVelocityErrorsEv
FN:161,_ZNK13PIDController16getHeadingErrorsEv
FN:173,_ZN13PIDController13computeErrorsEdddd
FNDA:1,_ZN13PIDController26getHeadingIntegralConstantEv
FNDA:1000,_ZN13PIDController10computePIDEv
FNDA:1,_ZN13PIDController30getHeadingProportionalConstantEv
FNDA:1,_ZNK13PIDController17getVelocityErrorsEv
FNDA:1001,_ZN13PIDController13computeErrorsEdddd
FNDA:1001,_ZN13PIDController12getDeltaTimeEv
FNDA:1,_ZN13PIDController28getHeadingDerivativeConstantEv
FNDA:1,_ZN13PIDController27getVelocityIntegralConstantEv
FNDA:1,_ZN13PIDController29getVelocityDerivativeConstantEv
FNDA:1,_ZNK13PIDController16getHeadingErrorsEv
FNDA:1,_ZN13PIDController31getVelocityProportionalConstantEv
FNDA:9,_ZN13PIDControllerC2Eddddddd
FNF:12
FNH:12
DA:27,9
DA:28,9
DA:29,9
DA:30,9
DA:31,9
DA:32,9
DA:33,9
DA:34,9
DA:35,9
DA:36,9
DA:43,1000
DA:46,1000
DA:48,1000
DA:51,1000
DA:52,1000
DA:54,1000
DA:56,1000
DA:57,1
DA:60,999
DA:63,1000
DA:66,1000
DA:67,1000
DA:68,1000
DA:70,1000
DA:71,1
DA:73,999
DA:75,1000
DA:78,1000
DA:79,1000
DA:81,1000
DA:82,0
DA:89,1
DA:90,1
DA:98,1
DA:99,1
DA:107,1
DA:108,1
DA:116,1001
DA:117,1001
DA:125,1
DA:126,1
DA:134,1
DA:135,1
DA:143,1
DA:144,1
DA:152,1
DA:153,1
DA:161,1
DA:162,1
DA:173,1001
DA:174,1001
DA:175,1001
DA:177,1001
DA:178,1001
DA:181,1001
DA:182,1001
DA:183,1001
LF:57
LH:56
end_of_record
TN:
SF:/home/sas/Ackermann-steering-controller-ENPM808X/app/RobotModel.cpp
FN:21,_ZN10RobotModelC2Eddd
FN:34,_ZN10RobotModel15setInitialStateEdddd
FN:47,_ZN10RobotModel11updateStateEdd
FN:76,_ZN10RobotModel35calculateSteeringAndDriveVelocitiesEdRdS0_
FN:94,_ZN10RobotModel8getStateERdS0_S0_S0_
FNDA:3,_ZN10RobotModelC2Eddd
FNDA:1,_ZN10RobotModel15setInitialStateEdddd
FNDA:1003,_ZN10RobotModel8getStateERdS0_S0_S0_
FNDA:1000,_ZN10RobotModel11updateStateEdd
FNDA:1000,_ZN10RobotModel35calculateSteeringAndDriveVelocitiesEdRdS0_
FNF:5
FNH:5
DA:21,3
DA:22,3
DA:23,3
DA:24,3
DA:34,1
DA:35,1
DA:36,1
DA:37,1
DA:38,1
DA:39,1
DA:47,1000
DA:49,1000
DA:51,291
DA:55,1000
DA:56,1000
DA:57,1000
DA:60,1000
DA:61,1000
DA:62,1000
DA:64,1000
DA:65,1000
DA:66,1000
DA:67,1000
DA:76,1000
DA:78,1000
DA:81,1000
DA:82,1000
DA:83,1000
DA:84,1000
DA:94,1003
DA:95,1003
DA:96,1003
DA:97,1003
DA:98,1003
DA:99,1003
LF:35
LH:35
end_of_record
TN:
SF:/home/sas/Ackermann-steering-controller-ENPM808X/app/RobotSimulation.cpp
FN:37,_ZN15RobotSimulationC2Edddddddddd
FN:50,_ZN15RobotSimulation13runSimulationEdd
FN:102,_ZNK15RobotSimulation9getFinalXEv
FN:111,_ZNK15RobotSimulation9getFinalYEv
FN:120,_ZNK15RobotSimulation13getFinalThetaEv
FN:129,_ZNK15RobotSimulation16getFinalVelocityEv
FNDA:0,_ZNK15RobotSimulation16getFinalVelocityEv
FNDA:0,_ZNK15RobotSimulation13getFinalThetaEv
FNDA:1,_ZN15RobotSimulationC2Edddddddddd
FNDA:0,_ZNK15RobotSimulation9getFinalXEv
FNDA:0,_ZNK15RobotSimulation9getFinalYEv
FNDA:1,_ZN15RobotSimulation13runSimulationEdd
FNF:6
FNH:2
DA:37,1
DA:39,1
DA:40,1
DA:41,1
DA:50,1
DA:53,1
DA:55,0
DA:56,0
DA:58,0
DA:59,0
DA:63,1
DA:64,0
DA:67,1
DA:68,1001
DA:70,1000
DA:73,1000
DA:74,1000
DA:77,1000
DA:80,1000
DA:83,1000
DA:84,1000
DA:85,1000
DA:88,1000
DA:89,1000
DA:93,1
DA:94,1
DA:95,1
DA:102,0
DA:103,0
DA:111,0
DA:112,0
DA:120,0
DA:121,0
DA:129,0
DA:130,0
LF:35
LH:22
end_of_record
TN:
SF:/home/sas/Ackermann-steering-controller-ENPM808X/app/main.cpp
FN:17,main
FNDA:0,main
FNF:1
FNH:0
DA:17,0
DA:19,0
DA:22,0
DA:24,0
DA:25,0
LF:5
LH:0
end_of_record
TN:
SF:/home/sas/Ackermann-steering-controller-ENPM808X/build/_deps/googletest-src/googletest/include/gtest/gtest-assertion-result.h
FN:174,_ZNK7testing15AssertionResultcvbEv
FN:183,_ZNK7testing15AssertionResult7messageEv
FN:187,_ZNK7testing15AssertionResult15failure_messageEv
FNDA:0,_ZNK7testing15AssertionResult15failure_messageEv
FNDA:0,_ZNK7testing15AssertionResult7messageEv
FNDA:17,_ZNK7testing15AssertionResultcvbEv
FNF:3
FNH:1
DA:174,17
DA:183,0
DA:184,0
DA:187,0
LF:4
LH:1
end_of_record
TN:
SF:/home/sas/Ackermann-steering-controller-ENPM808X/build/_deps/googletest-src/googletest/include/gtest/gtest.h
FN:256,_ZN7testing4Test14SetUpTestSuiteEv
FN:264,_ZN7testing4Test17TearDownTestSuiteEv
FN:269,_ZN7testing4Test16TearDownTestCaseEv
FN:270,_ZN7testing4Test13SetUpTestCaseEv
FN:357,_ZN7testing4Test5SetupEv
FN:1567,_ZN7testing8internal24CmpHelperFloatingPointEQIdEENS_15AssertionResultEPKcS4_T_S5_
FN:2317,_Z13RUN_ALL_TESTSv
FNDA:0,_ZN7testing4Test5SetupEv
FNDA:0,_ZN7testing4Test13SetUpTestCaseEv
FNDA:0,_ZN7testing4Test17TearDownTestSuiteEv
FNDA:11,_Z13RUN_ALL_TESTSv
FNDA:0,_ZN7testing4Test14SetUpTestSuiteEv
FNDA:0,_ZN7testing4Test16TearDownTestCaseEv
FNDA:17,_ZN7testing8internal24CmpHelperFloatingPointEQIdEENS_15AssertionResultEPKcS4_T_S5_
FNF:7
FNH:2
DA:256,0
DA:264,0
DA:269,0
DA:270,0
DA:357,0
DA:1567,17
DA:1570,17
DA:1572,17
DA:1573,17
DA:1576,0
DA:1577,0
DA:1578,0
DA:1580,0
DA:1581,0
DA:1582,0
DA:1586,0
DA:1587,0
DA:2317,11
LF:18
LH:5
end_of_record
TN:
SF:/home/sas/Ackermann-steering-controller-ENPM808X/build/_deps/googletest-src/googletest/include/gtest/internal/gtest-internal.h
FN:294,_ZN7testing8internal13FloatingPointIdEC2ERKd
FN:316,_ZNK7testing8internal13FloatingPointIdE13exponent_bitsEv
FN:319,_ZNK7testing8internal13FloatingPointIdE13fraction_bitsEv
FN:325,_ZNK7testing8internal13FloatingPointIdE6is_nanEv
FN:337,_ZNK7testing8internal13FloatingPointIdE12AlmostEqualsERKS2_
FN:368,_ZN7testing8internal13FloatingPointIdE24SignAndMagnitudeToBiasedERKm
FN:380,_ZN7testing8internal13FloatingPointIdE38DistanceBetweenSignAndMagnitudeNumbersERKmS4_
FN:438,_ZN7testing8internal15TestFactoryBaseD2Ev
FN:438,_ZN7testing8internal15TestFactoryBaseD0Ev
FN:445,_ZN7testing8internal15TestFactoryBaseC2Ev
FN:457,_ZN7testing8internal15TestFactoryImplI45RobotSimulation_Check_Simulation_Running_TestE10CreateTestEv
FN:457,_ZN7testing8internal15TestFactoryImplI50PIDControllerTest_TestHeadingIntegralConstant_TestE10CreateTestEv
FN:457,_ZN7testing8internal15TestFactoryImplI36PIDControllerTest_TestDeltaTime_TestE10CreateTestEv
FN:457,_ZN7testing8internal15TestFactoryImplI52PIDControllerTest_TestHeadingDerivativeConstant_TestE10CreateTestEv
FN:457,_ZN7testing8internal15TestFactoryImplI51PIDControllerTest_TestVelocityIntegralConstant_TestE10CreateTestEv
FN:457,_ZN7testing8internal15TestFactoryImplI40PIDControllerTest_TestComputeErrors_TestE10CreateTestEv
FN:457,_ZN7testing8internal15TestFactoryImplI54PIDControllerTest_TestHeadingProportionalConstant_TestE10CreateTestEv
FN:457,_ZN7testing8internal15TestFactoryImplI36RobotModelTest_InitialStateTest_TestE10CreateTestEv
FN:457,_ZN7testing8internal15TestFactoryImplI39RobotModelTest_SetInitialStateTest_TestE10CreateTestEv
FN:457,_ZN7testing8internal15TestFactoryImplI55PIDControllerTest_TestVelocityProportionalConstant_TestE10CreateTestEv
FN:457,_ZN7testing8internal15TestFactoryImplI53PIDControllerTest_TestVelocityDerivativeConstant_TestE10CreateTestEv
FN:478,_ZN7testing8internal12CodeLocationC2ERKNSt7__cxx1112basic_stringIcSt11char_traitsIcESaIcEEEi
FN:491,_ZN7testing8internal19GetNotDefaultOrNullEPFvvES2_
FN:506,_ZN7testing8internal16SuiteApiResolverINS_4TestEE19GetSetUpCaseOrSuiteEPKci
FN:527,_ZN7testing8internal16SuiteApiResolverINS_4TestEE22GetTearDownCaseOrSuiteEPKci
FN:843,_ZN7testing8internal14TrueWithStringC2Ev
FN:846,_ZNK7testing8internal14TrueWithStringcvbEv
FNDA:1,_ZN7testing8internal15TestFactoryImplI53PIDControllerTest_TestVelocityDerivativeConstant_TestE10CreateTestEv
FNDA:1,_ZN7testing8internal15TestFactoryImplI55PIDControllerTest_TestVelocityProportionalConstant_TestE10CreateTestEv
FNDA:1,_ZN7testing8internal15TestFactoryImplI39RobotModelTest_SetInitialStateTest_TestE10CreateTestEv
FNDA:1,_ZN7testing8internal15TestFactoryImplI36RobotModelTest_InitialStateTest_TestE10CreateTestEv
FNDA:484,_ZN7testing8internal19GetNotDefaultOrNullEPFvvES2_
FNDA:0,_ZN7testing8internal15TestFactoryBaseD0Ev
FNDA:1,_ZN7testing8internal15TestFactoryImplI54PIDControllerTest_TestHeadingProportionalConstant_TestE10CreateTestEv
FNDA:1,_ZN7testing8internal15TestFactoryImplI40PIDControllerTest_TestComputeErrors_TestE10CreateTestEv
FNDA:121,_ZN7testing8internal12CodeLocationC2ERKNSt7__cxx1112basic_stringIcSt11char_traitsIcESaIcEEEi
FNDA:17,_ZN7testing8internal13FloatingPointIdE38DistanceBetweenSignAndMagnitudeNumbersERKmS4_
FNDA:17,_ZNK7testing8internal13FloatingPointIdE12AlmostEqualsERKS2_
FNDA:1,_ZN7testing8internal15TestFactoryImplI51PIDControllerTest_TestVelocityIntegralConstant_TestE10CreateTestEv
FNDA:34,_ZN7testing8internal13FloatingPointIdE24SignAndMagnitudeToBiasedERKm
FNDA:1,_ZN7testing8internal14TrueWithStringC2Ev
FNDA:121,_ZN7testing8internal16SuiteApiResolverINS_4TestEE22GetTearDownCaseOrSuiteEPKci
FNDA:0,_ZNK7testing8internal13FloatingPointIdE13fraction_bitsEv
FNDA:121,_ZN7testing8internal15TestFactoryBaseD2Ev
FNDA:34,_ZNK7testing8internal13FloatingPointIdE13exponent_bitsEv
FNDA:1,_ZNK7testing8internal14TrueWithStringcvbEv
FNDA:1,_ZN7testing8internal15TestFactoryImplI52PIDControllerTest_TestHeadingDerivativeConstant_TestE10CreateTestEv
FNDA:1,_ZN7testing8internal15TestFactoryImplI36PIDControllerTest_TestDeltaTime_TestE10CreateTestEv
FNDA:1,_ZN7testing8internal15TestFactoryImplI50PIDControllerTest_TestHeadingIntegralConstant_TestE10CreateTestEv
FNDA:121,_ZN7testing8internal15TestFactoryBaseC2Ev
FNDA:121,_ZN7testing8internal16SuiteApiResolverINS_4TestEE19GetSetUpCaseOrSuiteEPKci
FNDA:34,_ZNK7testing8internal13FloatingPointIdE6is_nanEv
FNDA:1,_ZN7testing8internal15TestFactoryImplI45RobotSimulation_Check_Simulation_Running_TestE10CreateTestEv
FNDA:34,_ZN7testing8internal13FloatingPointIdEC2ERKd
FNF:27
FNH:25
DA:294,34
DA:316,34
DA:319,0
DA:325,34
DA:328,34
DA:337,17
DA:340,17
DA:342,17
DA:343,17
DA:368,34
DA:369,34
DA:371,0
DA:374,34
DA:380,17
DA:382,17
DA:383,17
DA:384,17
DA:438,121
DA:445,121
DA:457,11
DA:478,121
DA:479,121
DA:491,484
DA:493,484
DA:506,121
DA:510,121
DA:512,121
DA:514,121
DA:517,0
DA:519,121
DA:527,121
DA:531,121
DA:533,121
DA:535,121
DA:538,0
DA:540,121
DA:843,1
DA:846,1
LF:38
LH:34
end_of_record
TN:
SF:/home/sas/Ackermann-steering-controller-ENPM808X/build/_deps/googletest-src/googletest/include/gtest/internal/gtest-port.h
FN:1042,_ZN7testing8internal8GTestLog9GetStreamEv
FNDA:0,_ZN7testing8internal8GTestLog9GetStreamEv
FNF:1
FNH:0
DA:1042,0
LF:1
LH:0
end_of_record
TN:
SF:/home/sas/Ackermann-steering-controller-ENPM808X/build/_deps/googletest-src/googletest/include/gtest/internal/gtest-type-util.h
FN:61,_ZN7testing8internal31CanonicalizeForStdLibVersioningENSt7__cxx1112basic_stringIcSt11char_traitsIcESaIcEEE
FN:91,_ZN7testing8internal11GetTypeNameB5cxx11ERKSt9type_info
FNDA:0,_ZN7testing8internal31CanonicalizeForStdLibVersioningENSt7__cxx1112basic_stringIcSt11char_traitsIcESaIcEEE
FNDA:0,_ZN7testing8internal11GetTypeNameB5cxx11ERKSt9type_info
FNF:2
FNH:0
DA:61,0
DA:63,0
DA:64,0
DA:65,0
DA:67,0
DA:75,0
DA:78,0
DA:79,0
DA:80,0
DA:83,0
DA:84,0
DA:86,0
DA:91,0
DA:92,0
DA:94,0
DA:100,0
DA:101,0
DA:102,0
DA:103,0
DA:121,0
LF:20
LH:0
end_of_record
TN:
SF:/home/sas/Ackermann-steering-controller-ENPM808X/test/main.cpp
FN:3,main
FNDA:11,main
FNF:1
FNH:1
DA:3,11
DA:4,11
DA:5,11
LF:3
LH:3
end_of_record
TN:
SF:/home/sas/Ackermann-steering-controller-ENPM808X/test/test.cpp
FN:20,_ZN55PIDControllerTest_TestVelocityProportionalConstant_TestD2Ev
FN:20,_ZN55PIDControllerTest_TestVelocityProportionalConstant_Test8TestBodyEv
FN:20,_ZN55PIDControllerTest_TestVelocityProportionalConstant_TestD0Ev
FN:20,_ZN55PIDControllerTest_TestVelocityProportionalConstant_TestC2Ev
FN:28,_ZN51PIDControllerTest_TestVelocityIntegralConstant_TestC2Ev
FN:28,_ZN51PIDControllerTest_TestVelocityIntegralConstant_TestD0Ev
FN:28,_ZN51PIDControllerTest_TestVelocityIntegralConstant_TestD2Ev
FN:28,_ZN51PIDControllerTest_TestVelocityIntegralConstant_Test8TestBodyEv
FN:36,_ZN53PIDControllerTest_TestVelocityDerivativeConstant_TestC2Ev
FN:36,_ZN53PIDControllerTest_TestVelocityDerivativeConstant_Test8TestBodyEv
FN:36,_ZN53PIDControllerTest_TestVelocityDerivativeConstant_TestD0Ev
FN:36,_ZN53PIDControllerTest_TestVelocityDerivativeConstant_TestD2Ev
FN:44,_ZN36PIDControllerTest_TestDeltaTime_Test8TestBodyEv
FN:44,_ZN36PIDControllerTest_TestDeltaTime_TestC2Ev
FN:44,_ZN36PIDControllerTest_TestDeltaTime_TestD0Ev
FN:44,_ZN36PIDControllerTest_TestDeltaTime_TestD2Ev
FN:52,_ZN54PIDControllerTest_TestHeadingProportionalConstant_TestD0Ev
FN:52,_ZN54PIDControllerTest_TestHeadingProportionalConstant_TestD2Ev
FN:52,_ZN54PIDControllerTest_TestHeadingProportionalConstant_Test8TestBodyEv
FN:52,_ZN54PIDControllerTest_TestHeadingProportionalConstant_TestC2Ev
FN:60,_ZN50PIDControllerTest_TestHeadingIntegralConstant_TestD2Ev
FN:60,_ZN50PIDControllerTest_TestHeadingIntegralConstant_Test8TestBodyEv
FN:60,_ZN50PIDControllerTest_TestHeadingIntegralConstant_TestD0Ev
FN:60,_ZN50PIDControllerTest_TestHeadingIntegralConstant_TestC2Ev
FN:68,_ZN52PIDControllerTest_TestHeadingDerivativeConstant_TestC2Ev
FN:68,_ZN52PIDControllerTest_TestHeadingDerivativeConstant_TestD2Ev
FN:68,_ZN52PIDControllerTest_TestHeadingDerivativeConstant_Test8TestBodyEv
FN:68,_ZN52PIDControllerTest_TestHeadingDerivativeConstant_TestD0Ev
FN:76,_ZN40PIDControllerTest_TestComputeErrors_TestD0Ev
FN:76,_ZN40PIDControllerTest_TestComputeErrors_Test8TestBodyEv
FN:76,_ZN40PIDControllerTest_TestComputeErrors_TestD2Ev
FN:76,_ZN40PIDControllerTest_TestComputeErrors_TestC2Ev
FN:102,_ZN36RobotModelTest_InitialStateTest_TestD2Ev
FN:102,_ZN36RobotModelTest_InitialStateTest_TestC2Ev
FN:102,_ZN36RobotModelTest_InitialStateTest_TestD0Ev
FN:102,_ZN36RobotModelTest_InitialStateTest_Test8TestBodyEv
FN:115,_ZN39RobotModelTest_SetInitialStateTest_TestD0Ev
FN:115,_ZN39RobotModelTest_SetInitialStateTest_TestC2Ev
FN:115,_ZN39RobotModelTest_SetInitialStateTest_Test8TestBodyEv
FN:115,_ZN39RobotModelTest_SetInitialStateTest_TestD2Ev
FN:129,_ZN45RobotSimulation_Check_Simulation_Running_TestD0Ev
FN:129,_ZN45RobotSimulation_Check_Simulation_Running_Test8TestBodyEv
FN:129,_ZN45RobotSimulation_Check_Simulation_Running_TestD2Ev
FN:129,_ZN45RobotSimulation_Check_Simulation_Running_TestC2Ev
FNDA:1,_ZN52PIDControllerTest_TestHeadingDerivativeConstant_TestD0Ev
FNDA:1,_ZN50PIDControllerTest_TestHeadingIntegralConstant_TestC2Ev
FNDA:1,_ZN54PIDControllerTest_TestHeadingProportionalConstant_TestC2Ev
FNDA:1,_ZN36RobotModelTest_InitialStateTest_Test8TestBodyEv
FNDA:1,_ZN55PIDControllerTest_TestVelocityProportionalConstant_TestC2Ev
FNDA:1,_ZN53PIDControllerTest_TestVelocityDerivativeConstant_TestD2Ev
FNDA:1,_ZN53PIDControllerTest_TestVelocityDerivativeConstant_TestD0Ev
FNDA:1,_ZN36PIDControllerTest_TestDeltaTime_TestD2Ev
FNDA:1,_ZN51PIDControllerTest_TestVelocityIntegralConstant_Test8TestBodyEv
FNDA:1,_ZN55PIDControllerTest_TestVelocityProportionalConstant_TestD0Ev
FNDA:1,_ZN52PIDControllerTest_TestHeadingDerivativeConstant_Test8TestBodyEv
FNDA:1,_ZN45RobotSimulation_Check_Simulation_Running_TestC2Ev
FNDA:1,_ZN54PIDControllerTest_TestHeadingProportionalConstant_Test8TestBodyEv
FNDA:1,_ZN45RobotSimulation_Check_Simulation_Running_TestD2Ev
FNDA:1,_ZN54PIDControllerTest_TestHeadingProportionalConstant_TestD2Ev
FNDA:1,_ZN51PIDControllerTest_TestVelocityIntegralConstant_TestD2Ev
FNDA:1,_ZN36PIDControllerTest_TestDeltaTime_TestD0Ev
FNDA:1,_ZN53PIDControllerTest_TestVelocityDerivativeConstant_Test8TestBodyEv
FNDA:1,_ZN52PIDControllerTest_TestHeadingDerivativeConstant_TestD2Ev
FNDA:1,_ZN51PIDControllerTest_TestVelocityIntegralConstant_TestD0Ev
FNDA:1,_ZN40PIDControllerTest_TestComputeErrors_TestC2Ev
FNDA:1,_ZN40PIDControllerTest_TestComputeErrors_TestD2Ev
FNDA:1,_ZN40PIDControllerTest_TestComputeErrors_Test8TestBodyEv
FNDA:1,_ZN45RobotSimulation_Check_Simulation_Running_Test8TestBodyEv
FNDA:1,_ZN55PIDControllerTest_TestVelocityProportionalConstant_Test8TestBodyEv
FNDA:1,_ZN45RobotSimulation_Check_Simulation_Running_TestD0Ev
FNDA:1,_ZN50PIDControllerTest_TestHeadingIntegralConstant_TestD0Ev
FNDA:1,_ZN50PIDControllerTest_TestHeadingIntegralConstant_Test8TestBodyEv
FNDA:1,_ZN55PIDControllerTest_TestVelocityProportionalConstant_TestD2Ev
FNDA:1,_ZN39RobotModelTest_SetInitialStateTest_TestD2Ev
FNDA:1,_ZN54PIDControllerTest_TestHeadingProportionalConstant_TestD0Ev
FNDA:1,_ZN50PIDControllerTest_TestHeadingIntegralConstant_TestD2Ev
FNDA:1,_ZN39RobotModelTest_SetInitialStateTest_TestC2Ev
FNDA:1,_ZN36RobotModelTest_InitialStateTest_TestC2Ev
FNDA:1,_ZN39RobotModelTest_SetInitialStateTest_Test8TestBodyEv
FNDA:1,_ZN36RobotModelTest_InitialStateTest_TestD0Ev
FNDA:1,_ZN36PIDControllerTest_TestDeltaTime_TestC2Ev
FNDA:1,_ZN52PIDControllerTest_TestHeadingDerivativeConstant_TestC2Ev
FNDA:1,_ZN51PIDControllerTest_TestVelocityIntegralConstant_TestC2Ev
FNDA:1,_ZN53PIDControllerTest_TestVelocityDerivativeConstant_TestC2Ev
FNDA:1,_ZN36PIDControllerTest_TestDeltaTime_Test8TestBodyEv
FNDA:1,_ZN40PIDControllerTest_TestComputeErrors_TestD0Ev
FNDA:1,_ZN39RobotModelTest_SetInitialStateTest_TestD0Ev
FNDA:1,_ZN36RobotModelTest_InitialStateTest_TestD2Ev
FNF:44
FNH:44
DA:20,4
DA:21,1
DA:22,1
DA:23,1
DA:28,4
DA:29,1
DA:30,1
DA:31,1
DA:36,4
DA:37,1
DA:38,1
DA:39,1
DA:44,4
DA:45,1
DA:46,1
DA:47,1
DA:52,4
DA:53,1
DA:54,1
DA:55,1
DA:60,4
DA:61,1
DA:62,1
DA:63,1
DA:68,4
DA:69,1
DA:70,1
DA:71,1
DA:76,4
DA:77,1
DA:80,1
DA:81,1
DA:82,1
DA:83,1
DA:86,1
DA:89,1
DA:90,1
DA:93,1
DA:96,1
DA:97,1
DA:102,4
DA:103,1
DA:105,1
DA:106,1
DA:107,1
DA:108,1
DA:109,1
DA:115,4
DA:116,1
DA:117,1
DA:119,1
DA:120,1
DA:121,1
DA:122,1
DA:123,1
DA:129,4
DA:130,1
DA:131,1
DA:132,1
LF:59
LH:59
end_of_record
TN:
SF:/usr/include/c++/11/bits/alloc_traits.h
FN:463,_ZNSt16allocator_traitsISaIdEE8allocateERS0_m
FN:495,_ZNSt16allocator_traitsISaIdEE10deallocateERS0_Pdm
FN:511,_ZNSt16allocator_traitsISaIdEE9constructIdJRKdEEEvRS0_PT_DpOT0_
FN:531,_ZNSt16allocator_traitsISaIdEE7destroyIdEEvRS0_PT_
FN:547,_ZNSt16allocator_traitsISaIdEE8max_sizeERKS0_
FN:562,_ZNSt16allocator_traitsISaIcEE37select_on_container_copy_constructionERKS0_
FN:845,_ZSt8_DestroyIPddEvT_S1_RSaIT0_E
FNDA:2024,_ZNSt16allocator_traitsISaIdEE8allocateERS0_m
FNDA:0,_ZNSt16allocator_traitsISaIcEE37select_on_container_copy_constructionERKS0_
FNDA:1018,_ZSt8_DestroyIPddEvT_S1_RSaIT0_E
FNDA:0,_ZNSt16allocator_traitsISaIdEE7destroyIdEEvRS0_PT_
FNDA:4002,_ZNSt16allocator_traitsISaIdEE9constructIdJRKdEEEvRS0_PT_DpOT0_
FNDA:2024,_ZNSt16allocator_traitsISaIdEE10deallocateERS0_Pdm
FNDA:4048,_ZNSt16allocator_traitsISaIdEE8max_sizeERKS0_
FNF:7
FNH:5
DA:463,2024
DA:464,2024
DA:495,2024
DA:496,2024
DA:511,4002
DA:516,4002
DA:520,4002
DA:531,0
DA:535,0
DA:539,0
DA:547,4048
DA:550,4048
DA:562,0
DA:563,0
DA:845,1018
DA:848,1018
DA:849,1018
LF:17
LH:12
end_of_record
TN:
SF:/usr/include/c++/11/bits/allocator.h
FN:156,_ZNSaIdEC2Ev
FN:174,_ZNSaIdED2Ev
FNDA:1018,_ZNSaIdED2Ev
FNDA:1018,_ZNSaIdEC2Ev
FNF:2
FNH:2
DA:156,1018
DA:174,1018
LF:2
LH:2
end_of_record
TN:
SF:/usr/include/c++/11/bits/basic_string.h
FN:251,_ZNSt7__cxx1112basic_stringIcSt11char_traitsIcESaIcEE16_M_construct_auxIPcEEvT_S7_St12__false_type
FN:271,_ZNSt7__cxx1112basic_stringIcSt11char_traitsIcESaIcEE12_M_constructIPcEEvT_S7_
FNDA:0,_ZNSt7__cxx1112basic_stringIcSt11char_traitsIcESaIcEE16_M_construct_auxIPcEEvT_S7_St12__false_type
FNDA:0,_ZNSt7__cxx1112basic_stringIcSt11char_traitsIcESaIcEE12_M_constructIPcEEvT_S7_
FNF:2
FNH:0
DA:251,0
DA:255,0
DA:256,0
DA:271,0
DA:274,0
DA:275,0
LF:6
LH:0
end_of_record
TN:
SF:/usr/include/c++/11/bits/basic_string.tcc
FN:206,_ZNSt7__cxx1112basic_stringIcSt11char_traitsIcESaIcEE12_M_constructIPcEEvT_S7_St20forward_iterator_tag
FN:206,_ZNSt7__cxx1112basic_stringIcSt11char_traitsIcESaIcEE12_M_constructIPKcEEvT_S8_St20forward_iterator_tag
FN:1169,_ZStplIcSt11char_traitsIcESaIcEENSt7__cxx1112basic_stringIT_T0_T1_EEPKS5_RKS8_
FNDA:0,_ZNSt7__cxx1112basic_stringIcSt11char_traitsIcESaIcEE12_M_constructIPKcEEvT_S8_St20forward_iterator_tag
FNDA:0,_ZNSt7__cxx1112basic_stringIcSt11char_traitsIcESaIcEE12_M_constructIPcEEvT_S7_St20forward_iterator_tag
FNDA:0,_ZStplIcSt11char_traitsIcESaIcEENSt7__cxx1112basic_stringIT_T0_T1_EEPKS5_RKS8_
FNF:3
FNH:0
DA:206,0
DA:211,0
DA:212,0
DA:215,0
DA:217,0
DA:219,0
DA:220,0
DA:225,0
DA:226,0
DA:228,0
DA:229,0
DA:232,0
DA:233,0
DA:1169,0
DA:1178,0
DA:1179,0
DA:1181,0
DA:1182,0
DA:1183,0
DA:1184,0
DA:1185,0
LF:21
LH:0
end_of_record
TN:
SF:/usr/include/c++/11/bits/char_traits.h
FN:393,_ZNSt11char_traitsIcE6lengthEPKc
FN:429,_ZNSt11char_traitsIcE4copyEPcPKcm
FNDA:0,_ZNSt11char_traitsIcE6lengthEPKc
FNDA:0,_ZNSt11char_traitsIcE4copyEPcPKcm
FNF:2
FNH:0
DA:393,0
DA:399,0
DA:429,0
DA:431,0
DA:432,0
DA:437,0
LF:6
LH:0
end_of_record
TN:
SF:/usr/include/c++/11/bits/cpp_type_traits.h
FN:560,_ZSt12__miter_baseIPdET_S1_
FNDA:0,_ZSt12__miter_baseIPdET_S1_
FNF:1
FNH:0
DA:560,0
DA:561,0
LF:2
LH:0
end_of_record
TN:
SF:/usr/include/c++/11/bits/move.h
FN:77,_ZSt7forwardIRKdEOT_RNSt16remove_referenceIS2_E4typeE
FN:104,_ZSt4moveIRSaIcEEONSt16remove_referenceIT_E4typeEOS3_
FN:104,_ZSt4moveIRPdEONSt16remove_referenceIT_E4typeEOS3_
FN:104,_ZSt4moveIRPNSt7__cxx1118basic_stringstreamIcSt11char_traitsIcESaIcEEEEONSt16remove_referenceIT_E4typeEOS9_
FN:104,_ZSt4moveIRPNSt7__cxx1112basic_stringIcSt11char_traitsIcESaIcEEEEONSt16remove_referenceIT_E4typeEOS9_
FNDA:0,_ZSt4moveIRPdEONSt16remove_referenceIT_E4typeEOS3_
FNDA:0,_ZSt4moveIRPNSt7__cxx1112basic_stringIcSt11char_traitsIcESaIcEEEEONSt16remove_referenceIT_E4typeEOS9_
FNDA:627,_ZSt4moveIRPNSt7__cxx1118basic_stringstreamIcSt11char_traitsIcESaIcEEEEONSt16remove_referenceIT_E4typeEOS9_
FNDA:10028,_ZSt7forwardIRKdEOT_RNSt16remove_referenceIS2_E4typeE
FNDA:0,_ZSt4moveIRSaIcEEONSt16remove_referenceIT_E4typeEOS3_
FNF:5
FNH:2
DA:77,10028
DA:78,10028
DA:104,627
DA:105,627
LF:4
LH:4
end_of_record
TN:
SF:/usr/include/c++/11/bits/std_abs.h
FN:71,_ZSt3absd
FNDA:1000,_ZSt3absd
FNF:1
FNH:1
DA:71,1000
DA:72,1000
LF:2
LH:2
end_of_record
TN:
SF:/usr/include/c++/11/bits/stl_algobase.h
FN:230,_ZSt3minImERKT_S2_S2_
FN:254,_ZSt3maxImERKT_S2_S2_
FN:313,_ZSt12__niter_baseIPdET_S1_
FN:335,_ZSt12__niter_wrapIPdET_RKS1_S1_
FN:420,_ZNSt11__copy_moveILb1ELb1ESt26random_access_iterator_tagE8__copy_mIdEEPT_PKS3_S6_S4_
FN:486,_ZSt14__copy_move_a2ILb1EPdS0_ET1_T0_S2_S1_
FN:521,_ZSt14__copy_move_a1ILb1EPdS0_ET1_T0_S2_S1_
FN:527,_ZSt13__copy_move_aILb1EPdS0_ET1_T0_S2_S1_
FN:611,_ZSt4copyISt13move_iteratorIPdES1_ET0_T_S4_S3_
FNDA:0,_ZSt14__copy_move_a2ILb1EPdS0_ET1_T0_S2_S1_
FNDA:0,_ZNSt11__copy_moveILb1ELb1ESt26random_access_iterator_tagE8__copy_mIdEEPT_PKS3_S6_S4_
FNDA:0,_ZSt12__niter_wrapIPdET_RKS1_S1_
FNDA:2398,_ZSt3maxImERKT_S2_S2_
FNDA:0,_ZSt4copyISt13move_iteratorIPdES1_ET0_T_S4_S3_
FNDA:0,_ZSt13__copy_move_aILb1EPdS0_ET1_T0_S2_S1_
FNDA:0,_ZSt14__copy_move_a1ILb1EPdS0_ET1_T0_S2_S1_
FNDA:12144,_ZSt12__niter_baseIPdET_S1_
FNDA:4851,_ZSt3minImERKT_S2_S2_
FNF:9
FNH:3
DA:230,4851
DA:235,4851
DA:236,0
DA:237,4851
DA:254,2398
DA:259,2398
DA:260,1180
DA:261,1218
DA:313,12144
DA:315,12144
DA:335,0
DA:336,0
DA:420,0
DA:429,0
DA:430,0
DA:431,0
DA:432,0
DA:486,0
DA:495,0
DA:521,0
DA:522,0
DA:527,0
DA:529,0
DA:532,0
DA:611,0
DA:620,0
LF:26
LH:9
end_of_record
TN:
SF:/usr/include/c++/11/bits/stl_construct.h
FN:172,_ZNSt12_Destroy_auxILb1EE9__destroyIPdEEvT_S3_
FN:182,_ZSt8_DestroyIPdEvT_S1_
FNDA:1018,_ZNSt12_Destroy_auxILb1EE9__destroyIPdEEvT_S3_
FNDA:1018,_ZSt8_DestroyIPdEvT_S1_
FNF:2
FNH:2
DA:172,1018
DA:182,1018
DA:196,1018
DA:197,1018
LF:4
LH:4
end_of_record
TN:
SF:/usr/include/c++/11/bits/stl_iterator.h
FN:1027,_ZN9__gnu_cxx17__normal_iteratorIPdSt6vectorIdSaIdEEEC2ERKS1_
FN:1027,_ZN9__gnu_cxx17__normal_iteratorIPKdSt6vectorIdSaIdEEEC2ERKS2_
FN:1042,_ZNK9__gnu_cxx17__normal_iteratorIPdSt6vectorIdSaIdEEEdeEv
FN:1042,_ZNK9__gnu_cxx17__normal_iteratorIPKdSt6vectorIdSaIdEEEdeEv
FN:1052,_ZN9__gnu_cxx17__normal_iteratorIPdSt6vectorIdSaIdEEEppEv
FN:1100,_ZNK9__gnu_cxx17__normal_iteratorIPKdSt6vectorIdSaIdEEEmiEl
FN:1100,_ZNK9__gnu_cxx17__normal_iteratorIPdSt6vectorIdSaIdEEEmiEl
FN:1105,_ZNK9__gnu_cxx17__normal_iteratorIPKdSt6vectorIdSaIdEEE4baseEv
FN:1105,_ZNK9__gnu_cxx17__normal_iteratorIPdSt6vectorIdSaIdEEE4baseEv
FN:1163,_ZN9__gnu_cxxeqIPKdSt6vectorIdSaIdEEEEbRKNS_17__normal_iteratorIT_T0_EESB_
FN:1179,_ZN9__gnu_cxxneIPdSt6vectorIdSaIdEEEEbRKNS_17__normal_iteratorIT_T0_EESA_
FN:1268,_ZN9__gnu_cxxmiIPdSt6vectorIdSaIdEEEENS_17__normal_iteratorIT_T0_E15difference_typeERKS8_SB_
FN:1439,_ZNSt13move_iteratorIPdEC2ES0_
FN:1464,_ZNKSt13move_iteratorIPdE4baseEv
FN:1723,_ZSt32__make_move_if_noexcept_iteratorIdSt13move_iteratorIPdEET0_PT_
FN:2464,_ZSt12__miter_baseIPdEDTcl12__miter_basecldtfp_4baseEEESt13move_iteratorIT_E
FNDA:1004998,_ZNK9__gnu_cxx17__normal_iteratorIPdSt6vectorIdSaIdEEEdeEv
FNDA:2024,_ZN9__gnu_cxxmiIPdSt6vectorIdSaIdEEEENS_17__normal_iteratorIT_T0_E15difference_typeERKS8_SB_
FNDA:2014096,_ZNK9__gnu_cxx17__normal_iteratorIPdSt6vectorIdSaIdEEE4baseEv
FNDA:1003000,_ZN9__gnu_cxxneIPdSt6vectorIdSaIdEEEEbRKNS_17__normal_iteratorIT_T0_EESA_
FNDA:4004,_ZN9__gnu_cxx17__normal_iteratorIPKdSt6vectorIdSaIdEEEC2ERKS2_
FNDA:2,_ZNK9__gnu_cxx17__normal_iteratorIPKdSt6vectorIdSaIdEEEdeEv
FNDA:2,_ZNK9__gnu_cxx17__normal_iteratorIPKdSt6vectorIdSaIdEEEmiEl
FNDA:0,_ZSt32__make_move_if_noexcept_iteratorIdSt13move_iteratorIPdEET0_PT_
FNDA:3998,_ZNK9__gnu_cxx17__normal_iteratorIPdSt6vectorIdSaIdEEEmiEl
FNDA:16044,_ZN9__gnu_cxx17__normal_iteratorIPdSt6vectorIdSaIdEEEC2ERKS1_
FNDA:0,_ZNSt13move_iteratorIPdEC2ES0_
FNDA:0,_ZNKSt13move_iteratorIPdE4baseEv
FNDA:1001000,_ZN9__gnu_cxx17__normal_iteratorIPdSt6vectorIdSaIdEEEppEv
FNDA:2000,_ZN9__gnu_cxxeqIPKdSt6vectorIdSaIdEEEEbRKNS_17__normal_iteratorIT_T0_EESB_
FNDA:4000,_ZNK9__gnu_cxx17__normal_iteratorIPKdSt6vectorIdSaIdEEE4baseEv
FNDA:0,_ZSt12__miter_baseIPdEDTcl12__miter_basecldtfp_4baseEEESt13move_iteratorIT_E
FNF:16
FNH:12
DA:1027,20048
DA:1028,20048
DA:1042,1005000
DA:1043,1005000
DA:1052,1001000
DA:1054,1001000
DA:1055,1001000
DA:1100,4000
DA:1101,4000
DA:1105,2018096
DA:1106,2018096
DA:1163,2000
DA:1166,2000
DA:1179,1003000
DA:1182,1003000
DA:1268,2024
DA:1271,2024
DA:1439,0
DA:1440,0
DA:1464,0
DA:1465,0
DA:1723,0
DA:1724,0
DA:2464,0
DA:2466,0
LF:25
LH:17
end_of_record
TN:
SF:/usr/include/c++/11/bits/stl_iterator_base_funcs.h
FN:98,_ZSt10__distanceIPcENSt15iterator_traitsIT_E15difference_typeES2_S2_St26random_access_iterator_tag
FN:98,_ZSt10__distanceIPKcENSt15iterator_traitsIT_E15difference_typeES3_S3_St26random_access_iterator_tag
FN:138,_ZSt8distanceIPKcENSt15iterator_traitsIT_E15difference_typeES3_S3_
FN:138,_ZSt8distanceIPcENSt15iterator_traitsIT_E15difference_typeES2_S2_
FNDA:0,_ZSt10__distanceIPKcENSt15iterator_traitsIT_E15difference_typeES3_S3_St26random_access_iterator_tag
FNDA:0,_ZSt8distanceIPcENSt15iterator_traitsIT_E15difference_typeES2_S2_
FNDA:0,_ZSt10__distanceIPcENSt15iterator_traitsIT_E15difference_typeES2_S2_St26random_access_iterator_tag
FNDA:0,_ZSt8distanceIPKcENSt15iterator_traitsIT_E15difference_typeES3_S3_
FNF:4
FNH:0
DA:98,0
DA:104,0
DA:138,0
DA:141,0
DA:142,0
LF:5
LH:0
end_of_record
TN:
SF:/usr/include/c++/11/bits/stl_iterator_base_types.h
FN:238,_ZSt19__iterator_categoryIPcENSt15iterator_traitsIT_E17iterator_categoryERKS2_
FN:238,_ZSt19__iterator_categoryIPKcENSt15iterator_traitsIT_E17iterator_categoryERKS3_
FNDA:0,_ZSt19__iterator_categoryIPcENSt15iterator_traitsIT_E17iterator_categoryERKS2_
FNDA:0,_ZSt19__iterator_categoryIPKcENSt15iterator_traitsIT_E17iterator_categoryERKS3_
FNF:2
FNH:0
DA:238,0
DA:239,0
LF:2
LH:0
end_of_record
TN:
SF:/usr/include/c++/11/bits/stl_numeric.h
FN:134,_ZSt10accumulateIN9__gnu_cxx17__normal_iteratorIPdSt6vectorIdSaIdEEEEdET0_T_S8_S7_
FNDA:2000,_ZSt10accumulateIN9__gnu_cxx17__normal_iteratorIPdSt6vectorIdSaIdEEEEdET0_T_S8_S7_
FNF:1
FNH:1
DA:134,2000
DA:140,1003000
DA:141,1001000
DA:142,2000
LF:4
LH:4
end_of_record
TN:
SF:/usr/include/c++/11/bits/stl_uninitialized.h
FN:108,_ZNSt20__uninitialized_copyILb1EE13__uninit_copyISt13move_iteratorIPdES3_EET0_T_S6_S5_
FN:126,_ZSt18uninitialized_copyISt13move_iteratorIPdES1_ET0_T_S4_S3_
FN:331,_ZSt22__uninitialized_copy_aISt13move_iteratorIPdES1_dET0_T_S4_S3_RSaIT1_E
FN:349,_ZSt34__uninitialized_move_if_noexcept_aIPdS0_SaIdEET0_T_S3_S2_RT1_
FN:1006,_ZSt14__relocate_a_1IddENSt9enable_ifIXsrSt24__is_bitwise_relocatableIT_vE5valueEPS2_E4typeES4_S4_S4_RSaIT0_E
FN:1040,_ZSt12__relocate_aIPdS0_SaIdEET0_T_S3_S2_RT1_
FNDA:4048,_ZSt14__relocate_a_1IddENSt9enable_ifIXsrSt24__is_bitwise_relocatableIT_vE5valueEPS2_E4typeES4_S4_S4_RSaIT0_E
FNDA:0,_ZNSt20__uninitialized_copyILb1EE13__uninit_copyISt13move_iteratorIPdES3_EET0_T_S6_S5_
FNDA:0,_ZSt22__uninitialized_copy_aISt13move_iteratorIPdES1_dET0_T_S4_S3_RSaIT1_E
FNDA:4048,_ZSt12__relocate_aIPdS0_SaIdEET0_T_S3_S2_RT1_
FNDA:0,_ZSt18uninitialized_copyISt13move_iteratorIPdES1_ET0_T_S4_S3_
FNDA:0,_ZSt34__uninitialized_move_if_noexcept_aIPdS0_SaIdEET0_T_S3_S2_RT1_
FNF:6
FNH:2
DA:108,0
DA:110,0
DA:126,0
DA:145,0
DA:151,0
DA:331,0
DA:333,0
DA:349,0
DA:355,0
DA:356,0
DA:1006,4048
DA:1009,4048
DA:1010,4048
DA:1011,1020
DA:1012,4048
DA:1040,4048
DA:1046,4048
DA:1048,4048
LF:18
LH:8
end_of_record
TN:
SF:/usr/include/c++/11/bits/stl_vector.h
FN:97,_ZNSt12_Vector_baseIdSaIdEE17_Vector_impl_dataC2Ev
FN:131,_ZNSt12_Vector_baseIdSaIdEE12_Vector_implC2Ev
FN:276,_ZNSt12_Vector_baseIdSaIdEE19_M_get_Tp_allocatorEv
FN:280,_ZNKSt12_Vector_baseIdSaIdEE19_M_get_Tp_allocatorEv
FN:288,_ZNSt12_Vector_baseIdSaIdEEC2Ev
FN:333,_ZNSt12_Vector_baseIdSaIdEED2Ev
FN:343,_ZNSt12_Vector_baseIdSaIdEE11_M_allocateEm
FN:350,_ZNSt12_Vector_baseIdSaIdEE13_M_deallocateEPdm
FN:431,_ZNSt6vectorIdSaIdEE19_S_nothrow_relocateESt17integral_constantIbLb1EE
FN:444,_ZNSt6vectorIdSaIdEE15_S_use_relocateEv
FN:453,_ZNSt6vectorIdSaIdEE14_S_do_relocateEPdS2_S2_RS0_St17integral_constantIbLb1EE
FN:465,_ZNSt6vectorIdSaIdEE11_S_relocateEPdS2_S2_RS0_
FN:487,_ZNSt6vectorIdSaIdEEC2Ev
FN:678,_ZNSt6vectorIdSaIdEED2Ev
FN:811,_ZNSt6vectorIdSaIdEE5beginEv
FN:820,_ZNKSt6vectorIdSaIdEE5beginEv
FN:829,_ZNSt6vectorIdSaIdEE3endEv
FN:838,_ZNKSt6vectorIdSaIdEE3endEv
FN:918,_ZNKSt6vectorIdSaIdEE4sizeEv
FN:923,_ZNKSt6vectorIdSaIdEE8max_sizeEv
FN:1007,_ZNKSt6vectorIdSaIdEE5emptyEv
FN:1043,_ZNSt6vectorIdSaIdEEixEm
FN:1143,_ZNSt6vectorIdSaIdEE4backEv
FN:1154,_ZNKSt6vectorIdSaIdEE4backEv
FN:1187,_ZNSt6vectorIdSaIdEE9push_backERKd
FN:1756,_ZNKSt6vectorIdSaIdEE12_M_check_lenEmPKc
FN:1776,_ZNSt6vectorIdSaIdEE11_S_max_sizeERKS0_
FNDA:3042,_ZNSt12_Vector_baseIdSaIdEE13_M_deallocateEPdm
FNDA:3998,_ZNSt6vectorIdSaIdEE4backEv
FNDA:4024,_ZNSt6vectorIdSaIdEE5beginEv
FNDA:1018,_ZNSt12_Vector_baseIdSaIdEED2Ev
FNDA:5066,_ZNSt12_Vector_baseIdSaIdEE19_M_get_Tp_allocatorEv
FNDA:1018,_ZNSt6vectorIdSaIdEEC2Ev
FNDA:1018,_ZNSt12_Vector_baseIdSaIdEE12_Vector_implC2Ev
FNDA:2024,_ZNKSt6vectorIdSaIdEE12_M_check_lenEmPKc
FNDA:4048,_ZNSt6vectorIdSaIdEE15_S_use_relocateEv
FNDA:4048,_ZNSt6vectorIdSaIdEE14_S_do_relocateEPdS2_S2_RS0_St17integral_constantIbLb1EE
FNDA:2024,_ZNSt12_Vector_baseIdSaIdEE11_M_allocateEm
FNDA:4048,_ZNKSt6vectorIdSaIdEE8max_sizeEv
FNDA:2000,_ZNKSt6vectorIdSaIdEE5beginEv
FNDA:4048,_ZNKSt12_Vector_baseIdSaIdEE19_M_get_Tp_allocatorEv
FNDA:4048,_ZNSt6vectorIdSaIdEE11_S_max_sizeERKS0_
FNDA:2002,_ZNKSt6vectorIdSaIdEE3endEv
FNDA:4002,_ZNSt6vectorIdSaIdEE9push_backERKd
FNDA:3998,_ZNSt6vectorIdSaIdEEixEm
FNDA:2,_ZNKSt6vectorIdSaIdEE4backEv
FNDA:1018,_ZNSt12_Vector_baseIdSaIdEEC2Ev
FNDA:4048,_ZNSt6vectorIdSaIdEE11_S_relocateEPdS2_S2_RS0_
FNDA:1018,_ZNSt12_Vector_baseIdSaIdEE17_Vector_impl_dataC2Ev
FNDA:12094,_ZNKSt6vectorIdSaIdEE4sizeEv
FNDA:4048,_ZNSt6vectorIdSaIdEE19_S_nothrow_relocateESt17integral_constantIbLb1EE
FNDA:1018,_ZNSt6vectorIdSaIdEED2Ev
FNDA:8022,_ZNSt6vectorIdSaIdEE3endEv
FNDA:2000,_ZNKSt6vectorIdSaIdEE5emptyEv
FNF:27
FNH:27
DA:97,1018
DA:98,1018
DA:99,1018
DA:131,1018
DA:133,1018
DA:134,1018
DA:276,5066
DA:277,5066
DA:280,4048
DA:281,4048
DA:288,1018
DA:333,1018
DA:335,1018
DA:336,1018
DA:337,1018
DA:343,2024
DA:346,2024
DA:350,3042
DA:353,3042
DA:354,2024
DA:355,3042
DA:431,4048
DA:436,4048
DA:444,4048
DA:449,4048
DA:453,4048
DA:456,4048
DA:465,4048
DA:469,4048
DA:487,1018
DA:678,1018
DA:680,1018
DA:681,1018
DA:683,1018
DA:811,4024
DA:812,4024
DA:820,2000
DA:821,2000
DA:829,8022
DA:830,8022
DA:838,2002
DA:839,2002
DA:918,12094
DA:919,12094
DA:923,4048
DA:924,4048
DA:1007,2000
DA:1008,2000
DA:1043,3998
DA:1046,3998
DA:1143,3998
DA:1146,3998
DA:1154,2
DA:1157,2
DA:1187,4002
DA:1189,4002
DA:1192,1978
DA:1194,1978
DA:1198,2024
DA:1199,4002
DA:1756,2024
DA:1758,2024
DA:1759,0
DA:1761,2024
DA:1762,2024
DA:1776,4048
DA:1781,4048
DA:1783,4048
DA:1784,4048
LF:69
LH:68
end_of_record
TN:
SF:/usr/include/c++/11/bits/unique_ptr.h
FN:79,_ZNKSt14default_deleteINSt7__cxx1112basic_stringIcSt11char_traitsIcESaIcEEEEclEPS5_
FN:79,_ZNKSt14default_deleteINSt7__cxx1118basic_stringstreamIcSt11char_traitsIcESaIcEEEEclEPS5_
FN:172,_ZNSt15__uniq_ptr_implINSt7__cxx1118basic_stringstreamIcSt11char_traitsIcESaIcEEESt14default_deleteIS5_EE6_M_ptrEv
FN:172,_ZNSt15__uniq_ptr_implINSt7__cxx1112basic_stringIcSt11char_traitsIcESaIcEEESt14default_deleteIS5_EE6_M_ptrEv
FN:173,_ZNKSt15__uniq_ptr_implINSt7__cxx1112basic_stringIcSt11char_traitsIcESaIcEEESt14default_deleteIS5_EE6_M_ptrEv
FN:174,_ZNSt15__uniq_ptr_implINSt7__cxx1118basic_stringstreamIcSt11char_traitsIcESaIcEEESt14default_deleteIS5_EE10_M_deleterEv
FN:174,_ZNSt15__uniq_ptr_implINSt7__cxx1112basic_stringIcSt11char_traitsIcESaIcEEESt14default_deleteIS5_EE10_M_deleterEv
FN:355,_ZNSt10unique_ptrINSt7__cxx1112basic_stringIcSt11char_traitsIcESaIcEEESt14default_deleteIS5_EED2Ev
FN:355,_ZNSt10unique_ptrINSt7__cxx1118basic_stringstreamIcSt11char_traitsIcESaIcEEESt14default_deleteIS5_EED2Ev
FN:413,_ZNKSt10unique_ptrINSt7__cxx1112basic_stringIcSt11char_traitsIcESaIcEEESt14default_deleteIS5_EEptEv
FN:421,_ZNKSt10unique_ptrINSt7__cxx1112basic_stringIcSt11char_traitsIcESaIcEEESt14default_deleteIS5_EE3getEv
FN:426,_ZNSt10unique_ptrINSt7__cxx1112basic_stringIcSt11char_traitsIcESaIcEEESt14default_deleteIS5_EE11get_deleterEv
FN:426,_ZNSt10unique_ptrINSt7__cxx1118basic_stringstreamIcSt11char_traitsIcESaIcEEESt14default_deleteIS5_EE11get_deleterEv
FN:435,_ZNKSt10unique_ptrINSt7__cxx1112basic_stringIcSt11char_traitsIcESaIcEEESt14default_deleteIS5_EEcvbEv
FN:781,_ZStneINSt7__cxx1112basic_stringIcSt11char_traitsIcESaIcEEESt14default_deleteIS5_EEbRKSt10unique_ptrIT_T0_EDn
FNDA:0,_ZNKSt10unique_ptrINSt7__cxx1112basic_stringIcSt11char_traitsIcESaIcEEESt14default_deleteIS5_EEcvbEv
FNDA:0,_ZStneINSt7__cxx1112basic_stringIcSt11char_traitsIcESaIcEEESt14default_deleteIS5_EEbRKSt10unique_ptrIT_T0_EDn
FNDA:627,_ZNKSt14default_deleteINSt7__cxx1118basic_stringstreamIcSt11char_traitsIcESaIcEEEEclEPS5_
FNDA:627,_ZNSt10unique_ptrINSt7__cxx1118basic_stringstreamIcSt11char_traitsIcESaIcEEESt14default_deleteIS5_EE11get_deleterEv
FNDA:0,_ZNKSt10unique_ptrINSt7__cxx1112basic_stringIcSt11char_traitsIcESaIcEEESt14default_deleteIS5_EE3getEv
FNDA:0,_ZNKSt14default_deleteINSt7__cxx1112basic_stringIcSt11char_traitsIcESaIcEEEEclEPS5_
FNDA:627,_ZNSt10unique_ptrINSt7__cxx1118basic_stringstreamIcSt11char_traitsIcESaIcEEESt14default_deleteIS5_EED2Ev
FNDA:0,_ZNKSt10unique_ptrINSt7__cxx1112basic_stringIcSt11char_traitsIcESaIcEEESt14default_deleteIS5_EEptEv
FNDA:0,_ZNSt15__uniq_ptr_implINSt7__cxx1112basic_stringIcSt11char_traitsIcESaIcEEESt14default_deleteIS5_EE10_M_deleterEv
FNDA:627,_ZNSt15__uniq_ptr_implINSt7__cxx1118basic_stringstreamIcSt11char_traitsIcESaIcEEESt14default_deleteIS5_EE10_M_deleterEv
FNDA:17,_ZNSt15__uniq_ptr_implINSt7__cxx1112basic_stringIcSt11char_traitsIcESaIcEEESt14default_deleteIS5_EE6_M_ptrEv
FNDA:0,_ZNKSt15__uniq_ptr_implINSt7__cxx1112basic_stringIcSt11char_traitsIcESaIcEEESt14default_deleteIS5_EE6_M_ptrEv
FNDA:0,_ZNSt10unique_ptrINSt7__cxx1112basic_stringIcSt11char_traitsIcESaIcEEESt14default_deleteIS5_EE11get_deleterEv
FNDA:17,_ZNSt10unique_ptrINSt7__cxx1112basic_stringIcSt11char_traitsIcESaIcEEESt14default_deleteIS5_EED2Ev
FNDA:1254,_ZNSt15__uniq_ptr_implINSt7__cxx1118basic_stringstreamIcSt11char_traitsIcESaIcEEESt14default_deleteIS5_EE6_M_ptrEv
FNF:15
FNH:7
DA:79,627
DA:85,627
DA:86,627
DA:172,1271
DA:173,0
DA:174,627
DA:355,644
DA:359,644
DA:360,644
DA:361,627
DA:362,644
DA:363,644
DA:413,0
DA:416,0
DA:421,0
DA:422,0
DA:426,627
DA:427,627
DA:435,0
DA:436,0
DA:781,0
DA:782,0
LF:22
LH:13
end_of_record
TN:
SF:/usr/include/c++/11/bits/vector.tcc
FN:426,_ZNSt6vectorIdSaIdEE17_M_realloc_insertIJRKdEEEvN9__gnu_cxx17__normal_iteratorIPdS1_EEDpOT_
FNDA:2024,_ZNSt6vectorIdSaIdEE17_M_realloc_insertIJRKdEEEvN9__gnu_cxx17__normal_iteratorIPdS1_EEDpOT_
FNF:1
FNH:1
DA:426,2024
DA:436,2024
DA:437,2024
DA:438,2024
DA:439,2024
DA:440,2024
DA:441,2024
DA:449,2024
DA:450,2024
DA:456,2024
DA:459,2024
DA:461,2024
DA:462,2024
DA:464,2024
DA:466,2024
DA:467,2024
DA:474,0
DA:475,0
DA:477,0
DA:481,0
DA:482,0
DA:485,0
DA:487,0
DA:488,0
DA:489,0
DA:491,0
DA:492,0
DA:493,0
DA:496,2024
DA:498,0
DA:500,2024
DA:501,2024
DA:502,2024
DA:503,2024
DA:504,2024
DA:505,2024
LF:36
LH:23
end_of_record
TN:
SF:/usr/include/c++/11/ext/alloc_traits.h
FN:97,_ZN9__gnu_cxx14__alloc_traitsISaIcEcE17_S_select_on_copyERKS1_
FNDA:0,_ZN9__gnu_cxx14__alloc_traitsISaIcEcE17_S_select_on_copyERKS1_
FNF:1
FNH:0
DA:97,0
DA:98,0
LF:2
LH:0
end_of_record
TN:
SF:/usr/include/c++/11/ext/new_allocator.h
FN:79,_ZN9__gnu_cxx13new_allocatorIcEC2Ev
FN:79,_ZN9__gnu_cxx13new_allocatorIdEC2Ev
FN:82,_ZN9__gnu_cxx13new_allocatorIcEC2ERKS1_
FN:89,_ZN9__gnu_cxx13new_allocatorIdED2Ev
FN:89,_ZN9__gnu_cxx13new_allocatorIcED2Ev
FN:103,_ZN9__gnu_cxx13new_allocatorIdE8allocateEmPKv
FN:132,_ZN9__gnu_cxx13new_allocatorIdE10deallocateEPdm
FN:154,_ZNK9__gnu_cxx13new_allocatorIdE8max_sizeEv
FN:160,_ZN9__gnu_cxx13new_allocatorIdE9constructIdJRKdEEEvPT_DpOT0_
FN:166,_ZN9__gnu_cxx13new_allocatorIdE7destroyIdEEvPT_
FN:197,_ZNK9__gnu_cxx13new_allocatorIdE11_M_max_sizeEv
FNDA:1018,_ZN9__gnu_cxx13new_allocatorIdED2Ev
FNDA:1018,_ZN9__gnu_cxx13new_allocatorIdEC2Ev
FNDA:4002,_ZN9__gnu_cxx13new_allocatorIdE9constructIdJRKdEEEvPT_DpOT0_
FNDA:0,_ZN9__gnu_cxx13new_allocatorIcEC2Ev
FNDA:2024,_ZN9__gnu_cxx13new_allocatorIdE8allocateEmPKv
FNDA:0,_ZN9__gnu_cxx13new_allocatorIcED2Ev
FNDA:4048,_ZNK9__gnu_cxx13new_allocatorIdE8max_sizeEv
FNDA:2024,_ZN9__gnu_cxx13new_allocatorIdE10deallocateEPdm
FNDA:0,_ZN9__gnu_cxx13new_allocatorIcEC2ERKS1_
FNDA:6072,_ZNK9__gnu_cxx13new_allocatorIdE11_M_max_sizeEv
FNDA:0,_ZN9__gnu_cxx13new_allocatorIdE7destroyIdEEvPT_
FNF:11
FNH:7
DA:79,1018
DA:82,0
DA:89,1018
DA:103,2024
DA:111,2024
DA:115,0
DA:116,0
DA:117,0
DA:127,2024
DA:132,2024
DA:145,2024
DA:150,2024
DA:154,4048
DA:155,4048
DA:160,4002
DA:162,4002
DA:166,0
DA:168,0
DA:197,6072
DA:200,6072
LF:20
LH:14
end_of_record
TN:
SF:/usr/include/c++/11/ext/type_traits.h
FN:152,_ZN9__gnu_cxx17__is_null_pointerIcEEbPT_
FN:152,_ZN9__gnu_cxx17__is_null_pointerIKcEEbPT_
FNDA:0,_ZN9__gnu_cxx17__is_null_pointerIKcEEbPT_
FNDA:0,_ZN9__gnu_cxx17__is_null_pointerIcEEbPT_
FNF:2
FNH:0
DA:152,0
DA:153,0
LF:2
LH:0
end_of_record
TN:
SF:/usr/include/c++/11/iomanip
FN:195,_ZSt12setprecisioni
FNDA:627,_ZSt12setprecisioni
FNF:1
FNH:1
DA:195,627
DA:196,627
LF:2
LH:2
end_of_record
TN:
SF:/usr/include/c++/11/new
FN:174,_ZnwmPv
FNDA:4684,_ZnwmPv
FNF:1
FNH:1
DA:174,4684
DA:175,4684
LF:2
LH:2
end_of_record
TN:
SF:/usr/include/c++/11/tuple
FN:124,_ZNSt10_Head_baseILm1ESt14default_deleteINSt7__cxx1112basic_stringIcSt11char_traitsIcESaIcEEEELb1EE7_M_headERS8_
FN:124,_ZNSt10_Head_baseILm1ESt14default_deleteINSt7__cxx1118basic_stringstreamIcSt11char_traitsIcESaIcEEEELb1EE7_M_headERS8_
FN:233,_ZNSt10_Head_baseILm0EPNSt7__cxx1112basic_stringIcSt11char_traitsIcESaIcEEELb0EE7_M_headERS7_
FN:233,_ZNSt10_Head_baseILm0EPNSt7__cxx1118basic_stringstreamIcSt11char_traitsIcESaIcEEELb0EE7_M_headERS7_
FN:236,_ZNSt10_Head_baseILm0EPNSt7__cxx1112basic_stringIcSt11char_traitsIcESaIcEEELb0EE7_M_headERKS7_
FN:268,_ZNSt11_Tuple_implILm0EJPNSt7__cxx1118basic_stringstreamIcSt11char_traitsIcESaIcEEESt14default_deleteIS5_EEE7_M_headERS9_
FN:268,_ZNSt11_Tuple_implILm0EJPNSt7__cxx1112basic_stringIcSt11char_traitsIcESaIcEEESt14default_deleteIS5_EEE7_M_headERS9_
FN:271,_ZNSt11_Tuple_implILm0EJPNSt7__cxx1112basic_stringIcSt11char_traitsIcESaIcEEESt14default_deleteIS5_EEE7_M_headERKS9_
FN:424,_ZNSt11_Tuple_implILm1EJSt14default_deleteINSt7__cxx1118basic_stringstreamIcSt11char_traitsIcESaIcEEEEEE7_M_headERS8_
FN:424,_ZNSt11_Tuple_implILm1EJSt14default_deleteINSt7__cxx1112basic_stringIcSt11char_traitsIcESaIcEEEEEE7_M_headERS8_
FN:1377,_ZSt12__get_helperILm1ESt14default_deleteINSt7__cxx1112basic_stringIcSt11char_traitsIcESaIcEEEEJEERT0_RSt11_Tuple_implIXT_EJS8_DpT1_EE
FN:1377,_ZSt12__get_helperILm1ESt14default_deleteINSt7__cxx1118basic_stringstreamIcSt11char_traitsIcESaIcEEEEJEERT0_RSt11_Tuple_implIXT_EJS8_DpT1_EE
FN:1377,_ZSt12__get_helperILm0EPNSt7__cxx1112basic_stringIcSt11char_traitsIcESaIcEEEJSt14default_deleteIS5_EEERT0_RSt11_Tuple_implIXT_EJS9_DpT1_EE
FN:1377,_ZSt12__get_helperILm0EPNSt7__cxx1118basic_stringstreamIcSt11char_traitsIcESaIcEEEJSt14default_deleteIS5_EEERT0_RSt11_Tuple_implIXT_EJS9_DpT1_EE
FN:1382,_ZSt12__get_helperILm0EPNSt7__cxx1112basic_stringIcSt11char_traitsIcESaIcEEEJSt14default_deleteIS5_EEERKT0_RKSt11_Tuple_implIXT_EJS9_DpT1_EE
FN:1393,_ZSt3getILm0EJPNSt7__cxx1112basic_stringIcSt11char_traitsIcESaIcEEESt14default_deleteIS5_EEERNSt13tuple_elementIXT_ESt5tupleIJDpT0_EEE4typeERSD_
FN:1393,_ZSt3getILm0EJPNSt7__cxx1118basic_stringstreamIcSt11char_traitsIcESaIcEEESt14default_deleteIS5_EEERNSt13tuple_elementIXT_ESt5tupleIJDpT0_EEE4typeERSD_
FN:1393,_ZSt3getILm1EJPNSt7__cxx1112basic_stringIcSt11char_traitsIcESaIcEEESt14default_deleteIS5_EEERNSt13tuple_elementIXT_ESt5tupleIJDpT0_EEE4typeERSD_
FN:1393,_ZSt3getILm1EJPNSt7__cxx1118basic_stringstreamIcSt11char_traitsIcESaIcEEESt14default_deleteIS5_EEERNSt13tuple_elementIXT_ESt5tupleIJDpT0_EEE4typeERSD_
FN:1399,_ZSt3getILm0EJPNSt7__cxx1112basic_stringIcSt11char_traitsIcESaIcEEESt14default_deleteIS5_EEERKNSt13tuple_elementIXT_ESt5tupleIJDpT0_EEE4typeERKSD_
FNDA:17,_ZNSt10_Head_baseILm0EPNSt7__cxx1112basic_stringIcSt11char_traitsIcESaIcEEELb0EE7_M_headERS7_
FNDA:0,_ZNSt11_Tuple_implILm1EJSt14default_deleteINSt7__cxx1112basic_stringIcSt11char_traitsIcESaIcEEEEEE7_M_headERS8_
FNDA:0,_ZSt12__get_helperILm0EPNSt7__cxx1112basic_stringIcSt11char_traitsIcESaIcEEEJSt14default_deleteIS5_EEERKT0_RKSt11_Tuple_implIXT_EJS9_DpT1_EE
FNDA:627,_ZNSt11_Tuple_implILm1EJSt14default_deleteINSt7__cxx1118basic_stringstreamIcSt11char_traitsIcESaIcEEEEEE7_M_headERS8_
FNDA:0,_ZNSt10_Head_baseILm0EPNSt7__cxx1112basic_stringIcSt11char_traitsIcESaIcEEELb0EE7_M_headERKS7_
FNDA:1254,_ZSt3getILm0EJPNSt7__cxx1118basic_stringstreamIcSt11char_traitsIcESaIcEEESt14default_deleteIS5_EEERNSt13tuple_elementIXT_ESt5tupleIJDpT0_EEE4typeERSD_
FNDA:1254,_ZNSt11_Tuple_implILm0EJPNSt7__cxx1118basic_stringstreamIcSt11char_traitsIcESaIcEEESt14default_deleteIS5_EEE7_M_headERS9_
FNDA:0,_ZNSt10_Head_baseILm1ESt14default_deleteINSt7__cxx1112basic_stringIcSt11char_traitsIcESaIcEEEELb1EE7_M_headERS8_
FNDA:17,_ZSt3getILm0EJPNSt7__cxx1112basic_stringIcSt11char_traitsIcESaIcEEESt14default_deleteIS5_EEERNSt13tuple_elementIXT_ESt5tupleIJDpT0_EEE4typeERSD_
FNDA:0,_ZSt12__get_helperILm1ESt14default_deleteINSt7__cxx1112basic_stringIcSt11char_traitsIcESaIcEEEEJEERT0_RSt11_Tuple_implIXT_EJS8_DpT1_EE
FNDA:0,_ZNSt11_Tuple_implILm0EJPNSt7__cxx1112basic_stringIcSt11char_traitsIcESaIcEEESt14default_deleteIS5_EEE7_M_headERKS9_
FNDA:627,_ZSt12__get_helperILm1ESt14default_deleteINSt7__cxx1118basic_stringstreamIcSt11char_traitsIcESaIcEEEEJEERT0_RSt11_Tuple_implIXT_EJS8_DpT1_EE
FNDA:17,_ZSt12__get_helperILm0EPNSt7__cxx1112basic_stringIcSt11char_traitsIcESaIcEEEJSt14default_deleteIS5_EEERT0_RSt11_Tuple_implIXT_EJS9_DpT1_EE
FNDA:0,_ZSt3getILm0EJPNSt7__cxx1112basic_stringIcSt11char_traitsIcESaIcEEESt14default_deleteIS5_EEERKNSt13tuple_elementIXT_ESt5tupleIJDpT0_EEE4typeERKSD_
FNDA:0,_ZSt3getILm1EJPNSt7__cxx1112basic_stringIcSt11char_traitsIcESaIcEEESt14default_deleteIS5_EEERNSt13tuple_elementIXT_ESt5tupleIJDpT0_EEE4typeERSD_
FNDA:17,_ZNSt11_Tuple_implILm0EJPNSt7__cxx1112basic_stringIcSt11char_traitsIcESaIcEEESt14default_deleteIS5_EEE7_M_headERS9_
FNDA:1254,_ZNSt10_Head_baseILm0EPNSt7__cxx1118basic_stringstreamIcSt11char_traitsIcESaIcEEELb0EE7_M_headERS7_
FNDA:627,_ZSt3getILm1EJPNSt7__cxx1118basic_stringstreamIcSt11char_traitsIcESaIcEEESt14default_deleteIS5_EEERNSt13tuple_elementIXT_ESt5tupleIJDpT0_EEE4typeERSD_
FNDA:1254,_ZSt12__get_helperILm0EPNSt7__cxx1118basic_stringstreamIcSt11char_traitsIcESaIcEEEJSt14default_deleteIS5_EEERT0_RSt11_Tuple_implIXT_EJS9_DpT1_EE
FNDA:627,_ZNSt10_Head_baseILm1ESt14default_deleteINSt7__cxx1118basic_stringstreamIcSt11char_traitsIcESaIcEEEELb1EE7_M_headERS8_
FNF:20
FNH:12
DA:124,627
DA:233,1271
DA:236,0
DA:268,1271
DA:271,0
DA:424,627
DA:1377,1898
DA:1378,1898
DA:1382,0
DA:1383,0
DA:1393,1898
DA:1394,1898
DA:1399,0
DA:1400,0
LF:14
LH:8
end_of_record
TN:
SF:/usr/include/c++/11/typeinfo
FN:99,_ZNKSt9type_info4nameEv
FNDA:0,_ZNKSt9type_info4nameEv
FNF:1
FNH:0
DA:99,0
DA:100,0
LF:2
LH:0
end_of_record
